; Function Attrs: nounwind uwtable
define dso_local i32 @uv_ip6_addr(ptr noundef %0, i32 noundef %1, ptr noundef initializes((0, 28)) %2) local_unnamed_addr #0 {
  %4 = alloca [40 x i8], align 16
  call void @llvm.lifetime.start.p0(i64 40, ptr nonnull %4) #26
  %5 = getelementptr inbounds nuw i8, ptr %2, i64 4
  tail call void @llvm.memset.p0.i64(ptr noundef nonnull align 4 dereferenceable(28) %5, i8 0, i64 24, i1 false)
  store i16 10, ptr %2, align 4
  %6 = trunc i32 %1 to i16
  %rev.i = tail call noundef i16 @llvm.bswap.i16(i16 %6)
  %7 = getelementptr inbounds nuw i8, ptr %2, i64 2
  store i16 %rev.i, ptr %7, align 2
  %8 = tail call ptr @strchr(ptr noundef nonnull dereferenceable(1) %0, i32 noundef 37) #25
  %.not = icmp eq ptr %8, null
  br i1 %.not, label %17, label %9

9:                                                ; preds = %3
  %10 = ptrtoint ptr %8 to i64
  %11 = ptrtoint ptr %0 to i64
  %12 = sub i64 %10, %11
  %spec.store.select = tail call i64 @llvm.umin.i64(i64 %12, i64 39)
  call void @llvm.memcpy.p0.p0.i64(ptr nonnull align 16 %4, ptr nonnull align 1 %0, i64 %spec.store.select, i1 false)
  %13 = getelementptr inbounds nuw [40 x i8], ptr %4, i64 0, i64 %spec.store.select
  store i8 0, ptr %13, align 1
  %14 = getelementptr inbounds nuw i8, ptr %8, i64 1
  %15 = tail call i32 @if_nametoindex(ptr noundef nonnull %14) #26
  %16 = getelementptr inbounds nuw i8, ptr %2, i64 24
  store i32 %15, ptr %16, align 4
  br label %17

17:                                               ; preds = %9, %3
  %.0 = phi ptr [ %4, %9 ], [ %0, %3 ]
  %18 = getelementptr inbounds nuw i8, ptr %2, i64 8
  %19 = call i32 @uv_inet_pton(i32 noundef 10, ptr noundef nonnull %.0, ptr noundef nonnull %18) #26
  call void @llvm.lifetime.end.p0(i64 40, ptr nonnull %4) #26
  ret i32 %19
}